target datalayout = "e-m:e-p270:32:32-p271:32:32-p272:64:64-i64:64-i128:128-f80:128-n8:16:32:64-S128"
target triple = "x86_64-pc-linux-gnu"

%struct._zend_executor_globals = type { %struct._zval_struct, %struct._zval_struct, [32 x ptr], ptr, ptr, %struct._zend_array, %struct._zend_array, ptr, i32, i32, ptr, ptr, ptr, ptr, ptr, ptr, i64, ptr, ptr, i32, i32, i64, i32, i32, i32, i8, i8, %struct.zend_atomic_bool_s, %struct.zend_atomic_bool_s, ptr, i64, ptr, ptr, %struct._zend_array, %struct._zend_array, i32, i8, %struct._zval_struct, %struct._zval_struct, %struct._zend_stack, %struct._zend_stack, %struct._zend_stack, ptr, i32, i32, i64, ptr, ptr, ptr, %struct._zend_objects_store, ptr, ptr, ptr, [3 x %struct._zend_op], ptr, i8, i8, i64, i32, i32, ptr, [16 x %struct._HashTableIterator], ptr, %union._zend_function, %struct._zend_op, %struct._zend_array, i64, %struct.zend_get_gc_buffer, ptr, ptr, ptr, i64, i8, i32, ptr, ptr, i64, %struct._zend_call_stack, i64, i64, [6 x ptr] }
%struct.zend_atomic_bool_s = type { i8 }
%struct._zval_struct = type { %union._zend_value, %union.anon, %union.anon.2 }
%union._zend_value = type { i64 }
%union.anon = type { i32 }
%union.anon.2 = type { i32 }
%struct._zend_stack = type { i32, i32, i32, ptr }
%struct._zend_objects_store = type { ptr, i32, i32, i32 }
%struct._HashTableIterator = type { ptr, i32, i32 }
%union._zend_function = type { %struct._zend_op_array }
%struct._zend_op_array = type { i8, [3 x i8], i32, ptr, ptr, ptr, i32, i32, ptr, ptr, ptr, ptr, i32, i32, i32, i32, ptr, ptr, ptr, ptr, ptr, i32, i32, ptr, ptr, ptr, i32, i32, i32, i32, ptr, ptr, [6 x ptr] }
%struct._zend_op = type { ptr, %union._znode_op, %union._znode_op, %union._znode_op, i32, i32, i8, i8, i8, i8 }
%union._znode_op = type { i32 }
%struct._zend_array = type { %struct._zend_refcounted_h, %union.anon.4, i32, %union.anon.6, i32, i32, i32, i32, i64, ptr }
%struct._zend_refcounted_h = type { i32, %union.anon.3 }
%union.anon.3 = type { i32 }
%union.anon.4 = type { i32 }
%union.anon.6 = type { ptr }
%struct.zend_get_gc_buffer = type { ptr, ptr, ptr }
%struct._zend_call_stack = type { ptr, i64 }
%struct._zend_object = type { %struct._zend_refcounted_h, i32, ptr, ptr, ptr, [1 x %struct._zval_struct] }
%struct._zend_class_entry = type { i8, ptr, %union.anon.15, i32, i32, i32, i32, ptr, ptr, ptr, %struct._zend_array, %struct._zend_array, %struct._zend_array, ptr, ptr, ptr, ptr, ptr, ptr, ptr, ptr, ptr, ptr, ptr, ptr, ptr, ptr, ptr, ptr, ptr, ptr, ptr, %union.anon.16, ptr, ptr, ptr, ptr, i32, i32, %union.anon.17, ptr, ptr, ptr, ptr, i32, ptr, ptr, %union.anon.18 }
%union.anon.15 = type { ptr }
%union.anon.16 = type { ptr }
%union.anon.17 = type { ptr }
%union.anon.18 = type { %struct.anon.19 }
%struct.anon.19 = type { ptr, i32, i32 }
%struct._zend_string = type { %struct._zend_refcounted_h, i64, i64, [1 x i8] }
%struct._zend_class_iterator_funcs = type { ptr, ptr, ptr, ptr, ptr, ptr }

@executor_globals = external global %struct._zend_executor_globals, align 8
@zend_ce_traversable = external global ptr, align 8
@.str.35 = private unnamed_addr constant [12 x i8] c"getiterator\00", align 1
@spl_ce_LogicException = external global ptr, align 8
@.str.36 = private unnamed_addr constant [68 x i8] c"%s::getIterator() must return an object that implements Traversable\00", align 1

; Function Attrs: nounwind uwtable
define internal i32 @spl_get_iterator_from_aggregate(ptr noundef %0, ptr noundef %1, ptr noundef %2) #0 {
  %4 = alloca ptr, align 8
  %5 = alloca ptr, align 8
  %6 = alloca ptr, align 8
  %7 = alloca ptr, align 8
  %8 = alloca ptr, align 8
  %9 = alloca ptr, align 8
  %10 = alloca ptr, align 8
  %11 = alloca ptr, align 8
  %12 = alloca i32, align 4
  %13 = alloca ptr, align 8
  %14 = alloca ptr, align 8
  %15 = alloca ptr, align 8
  %16 = alloca ptr, align 8
  store ptr %0, ptr %13, align 8
  store ptr %1, ptr %14, align 8
  store ptr %2, ptr %15, align 8
  %17 = load ptr, ptr %14, align 8
  %18 = getelementptr inbounds %struct._zend_class_entry, ptr %17, i32 0, i32 30
  %19 = load ptr, ptr %18, align 8
  %20 = icmp ne ptr %19, null
  br i1 %20, label %21, label %26

21:                                               ; preds = %3
  %22 = load ptr, ptr %14, align 8
  %23 = getelementptr inbounds %struct._zend_class_entry, ptr %22, i32 0, i32 30
  %24 = load ptr, ptr %23, align 8
  %25 = getelementptr inbounds %struct._zend_class_iterator_funcs, ptr %24, i32 0, i32 0
  br label %27

26:                                               ; preds = %3
  br label %27

27:                                               ; preds = %26, %21
  %28 = phi ptr [ %25, %21 ], [ null, %26 ]
  store ptr %28, ptr %16, align 8
  %29 = load ptr, ptr %15, align 8
  %30 = load ptr, ptr %14, align 8
  %31 = load ptr, ptr %16, align 8
  %32 = load ptr, ptr %13, align 8
  store ptr %29, ptr %6, align 8
  store ptr %30, ptr %7, align 8
  store ptr %31, ptr %8, align 8
  store ptr @.str.35, ptr %9, align 8
  store ptr %32, ptr %10, align 8
  %33 = load ptr, ptr %6, align 8
  %34 = load ptr, ptr %7, align 8
  %35 = load ptr, ptr %8, align 8
  %36 = load ptr, ptr %9, align 8
  %37 = load ptr, ptr %9, align 8
  %38 = call i64 @strlen(ptr noundef %37) #11
  %39 = load ptr, ptr %10, align 8
  %40 = call ptr @zend_call_method(ptr noundef %33, ptr noundef %34, ptr noundef %35, ptr noundef %36, i64 noundef %38, ptr noundef %39, i32 noundef 0, ptr noundef null, ptr noundef null) #10
  %41 = load ptr, ptr getelementptr inbounds (%struct._zend_executor_globals, ptr @executor_globals, i32 0, i32 50), align 8
  %42 = icmp ne ptr %41, null
  br i1 %42, label %43, label %44

43:                                               ; preds = %27
  store i32 -1, ptr %12, align 4
  br label %77

44:                                               ; preds = %27
  %45 = load ptr, ptr %13, align 8
  store ptr %45, ptr %11, align 8
  %46 = load ptr, ptr %11, align 8
  %47 = getelementptr inbounds %struct._zval_struct, ptr %46, i32 0, i32 1
  %48 = load i8, ptr %47, align 8
  %49 = zext i8 %48 to i32
  %50 = icmp ne i32 %49, 8
  br i1 %50, label %67, label %51

51:                                               ; preds = %44
  %52 = load ptr, ptr %13, align 8
  %53 = getelementptr inbounds %struct._zval_struct, ptr %52, i32 0, i32 0
  %54 = load ptr, ptr %53, align 8
  %55 = getelementptr inbounds %struct._zend_object, ptr %54, i32 0, i32 2
  %56 = load ptr, ptr %55, align 8
  %57 = load ptr, ptr @zend_ce_traversable, align 8
  store ptr %56, ptr %4, align 8
  store ptr %57, ptr %5, align 8
  %58 = load ptr, ptr %4, align 8
  %59 = load ptr, ptr %5, align 8
  %60 = icmp eq ptr %58, %59
  br i1 %60, label %65, label %61

61:                                               ; preds = %51
  %62 = load ptr, ptr %4, align 8
  %63 = load ptr, ptr %5, align 8
  %64 = call zeroext i1 @instanceof_function_slow(ptr noundef %62, ptr noundef %63) #10
  br label %65

65:                                               ; preds = %61, %51
  %66 = phi i1 [ true, %51 ], [ %64, %61 ]
  br i1 %66, label %76, label %67

67:                                               ; preds = %65, %44
  %68 = load ptr, ptr @spl_ce_LogicException, align 8
  %69 = load ptr, ptr %14, align 8
  %70 = getelementptr inbounds %struct._zend_class_entry, ptr %69, i32 0, i32 1
  %71 = load ptr, ptr %70, align 8
  %72 = getelementptr inbounds %struct._zend_string, ptr %71, i32 0, i32 3
  %73 = getelementptr inbounds [1 x i8], ptr %72, i64 0, i64 0
  %74 = call ptr (ptr, i64, ptr, ...) @zend_throw_exception_ex(ptr noundef %68, i64 noundef 0, ptr noundef @.str.36, ptr noundef %73)
  %75 = load ptr, ptr %13, align 8
  call void @zval_ptr_dtor(ptr noundef %75)
  store i32 -1, ptr %12, align 4
  br label %77

76:                                               ; preds = %65
  store i32 0, ptr %12, align 4
  br label %77

77:                                               ; preds = %76, %67, %43
  %78 = load i32, ptr %12, align 4
  ret i32 %78
}