; Function Attrs: nounwind uwtable
define internal fastcc noundef i32 @spl_get_iterator_from_aggregate(ptr noundef %0, ptr noundef %1, ptr noundef %2) unnamed_addr #0 {
  %4 = getelementptr inbounds i8, ptr %1, i64 368
  %5 = load ptr, ptr %4, align 8
  %6 = tail call ptr @zend_call_method(ptr noundef %2, ptr noundef %1, ptr noundef %5, ptr noundef nonnull @.str.35, i64 noundef 11, ptr noundef %0, i32 noundef 0, ptr noundef null, ptr noundef null) #10
  %7 = load ptr, ptr getelementptr inbounds (%struct._zend_executor_globals, ptr @executor_globals, i64 0, i32 50), align 8
  %.not24 = icmp eq ptr %7, null
  br i1 %.not24, label %8, label %.critedge

8:                                                ; preds = %3
  %9 = getelementptr inbounds i8, ptr %0, i64 8
  %10 = load i8, ptr %9, align 8
  %.not25 = icmp eq i8 %10, 8
  br i1 %.not25, label %11, label %19

11:                                               ; preds = %8
  %12 = load ptr, ptr %0, align 8
  %13 = getelementptr inbounds i8, ptr %12, i64 16
  %14 = load ptr, ptr %13, align 8
  %15 = load ptr, ptr @zend_ce_traversable, align 8
  %16 = icmp eq ptr %14, %15
  br i1 %16, label %.critedge, label %17

17:                                               ; preds = %11
  %18 = tail call zeroext i1 @instanceof_function_slow(ptr noundef %14, ptr noundef %15) #10
  br i1 %18, label %.critedge, label %19

19:                                               ; preds = %17, %8
  %20 = load ptr, ptr @spl_ce_LogicException, align 8
  %21 = getelementptr inbounds i8, ptr %1, i64 8
  %22 = load ptr, ptr %21, align 8
  %23 = getelementptr inbounds i8, ptr %22, i64 24
  %24 = tail call ptr (ptr, i64, ptr, ...) @zend_throw_exception_ex(ptr noundef %20, i64 noundef 0, ptr noundef nonnull @.str.36, ptr noundef nonnull %23) #10
  tail call void @zval_ptr_dtor(ptr noundef nonnull %0) #10
  br label %.critedge

.critedge:                                        ; preds = %17, %11, %3, %19
  %.0 = phi i32 [ -1, %19 ], [ -1, %3 ], [ 0, %11 ], [ 0, %17 ]
  ret i32 %.0
}